; Function Attrs: mustprogress uwtable
define void @_ZN6icu_7512ChoiceFormatC2EPKdPKNS_13UnicodeStringEi(ptr noundef nonnull align 8 dereferenceable(488) %this, ptr noundef %limits, ptr noundef %formats, i32 noundef %cnt) unnamed_addr #1 align 2 personality ptr @__gxx_personality_v0 {
entry:
  tail call void @_ZN6icu_7512NumberFormatC2Ev(ptr noundef nonnull align 8 dereferenceable(356) %this)
  store ptr getelementptr inbounds ({ [49 x ptr] }, ptr @_ZTVN6icu_7512ChoiceFormatE, i64 0, i32 0, i64 2), ptr %this, align 8
  %constructorErrorCode = getelementptr inbounds i8, ptr %this, i64 356
  store i32 0, ptr %constructorErrorCode, align 4
  %msgPattern = getelementptr inbounds i8, ptr %this, i64 360
  invoke void @_ZN6icu_7514MessagePatternC1ER10UErrorCode(ptr noundef nonnull align 8 dereferenceable(127) %msgPattern, ptr noundef nonnull align 4 dereferenceable(4) %constructorErrorCode)
          to label %invoke.cont unwind label %lpad

invoke.cont:                                      ; preds = %entry
  %vtable = load ptr, ptr %this, align 8
  %vfn = getelementptr inbounds i8, ptr %vtable, i64 368
  %0 = load ptr, ptr %vfn, align 8
  invoke void %0(ptr noundef nonnull align 8 dereferenceable(488) %this, ptr noundef %limits, ptr noundef null, ptr noundef %formats, i32 noundef %cnt, ptr noundef nonnull align 4 dereferenceable(4) %constructorErrorCode)
          to label %invoke.cont5 unwind label %lpad4

invoke.cont5:                                     ; preds = %invoke.cont
  ret void

lpad:                                             ; preds = %entry
  %1 = landingpad { ptr, i32 }
          cleanup
  br label %ehcleanup

lpad4:                                            ; preds = %invoke.cont
  %2 = landingpad { ptr, i32 }
          cleanup
  tail call void @_ZN6icu_7514MessagePatternD1Ev(ptr noundef nonnull align 8 dereferenceable(127) %msgPattern) #9
  br label %ehcleanup

ehcleanup:                                        ; preds = %lpad4, %lpad
  %.pn = phi { ptr, i32 } [ %2, %lpad4 ], [ %1, %lpad ]
  tail call void @_ZN6icu_7512NumberFormatD2Ev(ptr noundef nonnull align 8 dereferenceable(356) %this) #9
  resume { ptr, i32 } %.pn
}